target datalayout = "e-m:e-p270:32:32-p271:32:32-p272:64:64-i64:64-i128:128-f80:128-n8:16:32:64-S128"
target triple = "x86_64-pc-linux-gnu"

%struct.png_struct_def = type { [1 x %struct.__jmp_buf_tag], ptr, ptr, i64, ptr, ptr, ptr, ptr, ptr, ptr, ptr, ptr, ptr, i8, i8, i32, i32, i32, i32, %struct.z_stream_s, ptr, i32, i32, i32, i32, i32, i32, i32, i32, i32, i32, i32, i32, i32, i32, i32, i32, i32, i32, i32, i32, i32, i64, i32, i32, i32, ptr, ptr, ptr, ptr, i64, i32, i32, ptr, i16, i32, i16, i8, i8, i8, i8, i8, i8, i8, i8, i8, i8, i8, i8, i8, i8, i8, i16, i8, i32, %struct.png_color_16_struct, %struct.png_color_16_struct, ptr, i32, i32, %struct.png_xy, i32, i32, i32, i32, i32, ptr, ptr, ptr, ptr, ptr, ptr, %struct.png_color_8_struct, %struct.png_color_8_struct, ptr, %struct.png_color_16_struct, ptr, ptr, ptr, ptr, ptr, ptr, ptr, ptr, ptr, i32, i32, i64, i64, i64, i64, i32, i32, ptr, ptr, i32, [29 x i8], i32, ptr, ptr, i32, i32, ptr, i8, i8, i16, i16, ptr, i32, i8, ptr, ptr, ptr, ptr, ptr, ptr, ptr, i8, i32, i32, i32, i64, %struct.png_unknown_chunk_t, i64, ptr, i64, i32, i32, ptr, [4 x ptr] }
%struct.__jmp_buf_tag = type { [8 x i64], i32, %struct.__sigset_t }
%struct.__sigset_t = type { [16 x i64] }
%struct.z_stream_s = type { ptr, i32, i64, ptr, i32, i64, ptr, ptr, ptr, ptr, ptr, i32, i64, i64 }
%struct.png_xy = type { i32, i32, i32, i32, i32, i32, i32, i32 }
%struct.png_color_8_struct = type { i8, i8, i8, i8, i8 }
%struct.png_color_16_struct = type { i8, i16, i16, i16, i16 }
%struct.png_unknown_chunk_t = type { [5 x i8], ptr, i64, i8 }
%struct.png_color_struct = type { i8, i8, i8 }

@.str.9 = private unnamed_addr constant [36 x i8] c"Invalid number of colors in palette\00", align 1
@.str.10 = private unnamed_addr constant [56 x i8] c"Ignoring request to write a PLTE chunk in grayscale PNG\00", align 1

; Function Attrs: nounwind uwtable
define void @png_save_uint_32(ptr noundef %0, i32 noundef %1) #0 {
  %3 = alloca ptr, align 8
  %4 = alloca i32, align 4
  store ptr %0, ptr %3, align 8, !tbaa !3
  store i32 %1, ptr %4, align 4, !tbaa !8
  %5 = load i32, ptr %4, align 4, !tbaa !8
  %6 = lshr i32 %5, 24
  %7 = and i32 %6, 255
  %8 = trunc i32 %7 to i8
  %9 = load ptr, ptr %3, align 8, !tbaa !3
  %10 = getelementptr inbounds i8, ptr %9, i64 0
  store i8 %8, ptr %10, align 1, !tbaa !10
  %11 = load i32, ptr %4, align 4, !tbaa !8
  %12 = lshr i32 %11, 16
  %13 = and i32 %12, 255
  %14 = trunc i32 %13 to i8
  %15 = load ptr, ptr %3, align 8, !tbaa !3
  %16 = getelementptr inbounds i8, ptr %15, i64 1
  store i8 %14, ptr %16, align 1, !tbaa !10
  %17 = load i32, ptr %4, align 4, !tbaa !8
  %18 = lshr i32 %17, 8
  %19 = and i32 %18, 255
  %20 = trunc i32 %19 to i8
  %21 = load ptr, ptr %3, align 8, !tbaa !3
  %22 = getelementptr inbounds i8, ptr %21, i64 2
  store i8 %20, ptr %22, align 1, !tbaa !10
  %23 = load i32, ptr %4, align 4, !tbaa !8
  %24 = and i32 %23, 255
  %25 = trunc i32 %24 to i8
  %26 = load ptr, ptr %3, align 8, !tbaa !3
  %27 = getelementptr inbounds i8, ptr %26, i64 3
  store i8 %25, ptr %27, align 1, !tbaa !10
  ret void
}

; Function Attrs: nounwind uwtable
define void @png_write_chunk_end(ptr noalias noundef %0) #0 {
  %2 = alloca ptr, align 8
  %3 = alloca [4 x i8], align 1
  %4 = alloca i32, align 4
  store ptr %0, ptr %2, align 8, !tbaa !11
  call void @llvm.lifetime.start.p0(i64 4, ptr %3) #7
  %5 = load ptr, ptr %2, align 8, !tbaa !11
  %6 = icmp eq ptr %5, null
  br i1 %6, label %7, label %8

7:                                                ; preds = %1
  store i32 1, ptr %4, align 4
  br label %17

8:                                                ; preds = %1
  %9 = load ptr, ptr %2, align 8, !tbaa !11
  %10 = getelementptr inbounds nuw %struct.png_struct_def, ptr %9, i32 0, i32 147
  store i32 130, ptr %10, align 4, !tbaa !13
  %11 = getelementptr inbounds [4 x i8], ptr %3, i64 0, i64 0
  %12 = load ptr, ptr %2, align 8, !tbaa !11
  %13 = getelementptr inbounds nuw %struct.png_struct_def, ptr %12, i32 0, i32 52
  %14 = load i32, ptr %13, align 4, !tbaa !31
  call void @png_save_uint_32(ptr noundef %11, i32 noundef %14)
  %15 = load ptr, ptr %2, align 8, !tbaa !11
  %16 = getelementptr inbounds [4 x i8], ptr %3, i64 0, i64 0
  call void @png_write_data(ptr noundef %15, ptr noundef %16, i64 noundef 4)
  store i32 0, ptr %4, align 4
  br label %17

17:                                               ; preds = %8, %7
  call void @llvm.lifetime.end.p0(i64 4, ptr %3) #7
  %18 = load i32, ptr %4, align 4
  switch i32 %18, label %20 [
    i32 0, label %19
    i32 1, label %19
  ]

19:                                               ; preds = %17, %17
  ret void

20:                                               ; preds = %17
  unreachable
}

; Function Attrs: nounwind uwtable
define void @png_write_chunk_data(ptr noalias noundef %0, ptr noundef %1, i64 noundef %2) #0 {
  %4 = alloca ptr, align 8
  %5 = alloca ptr, align 8
  %6 = alloca i64, align 8
  store ptr %0, ptr %4, align 8, !tbaa !11
  store ptr %1, ptr %5, align 8, !tbaa !3
  store i64 %2, ptr %6, align 8, !tbaa !30
  %7 = load ptr, ptr %4, align 8, !tbaa !11
  %8 = icmp eq ptr %7, null
  br i1 %8, label %9, label %10

9:                                                ; preds = %3
  br label %23

10:                                               ; preds = %3
  %11 = load ptr, ptr %5, align 8, !tbaa !3
  %12 = icmp ne ptr %11, null
  br i1 %12, label %13, label %23

13:                                               ; preds = %10
  %14 = load i64, ptr %6, align 8, !tbaa !30
  %15 = icmp ugt i64 %14, 0
  br i1 %15, label %16, label %23

16:                                               ; preds = %13
  %17 = load ptr, ptr %4, align 8, !tbaa !11
  %18 = load ptr, ptr %5, align 8, !tbaa !3
  %19 = load i64, ptr %6, align 8, !tbaa !30
  call void @png_write_data(ptr noundef %17, ptr noundef %18, i64 noundef %19)
  %20 = load ptr, ptr %4, align 8, !tbaa !11
  %21 = load ptr, ptr %5, align 8, !tbaa !3
  %22 = load i64, ptr %6, align 8, !tbaa !30
  call void @png_calculate_crc(ptr noundef %20, ptr noundef %21, i64 noundef %22)
  br label %23

23:                                               ; preds = %9, %16, %13, %10
  ret void
}

; Function Attrs: nounwind uwtable
define internal void @png_write_chunk_header(ptr noalias noundef %0, i32 noundef %1, i32 noundef %2) #0 {
  %4 = alloca ptr, align 8
  %5 = alloca i32, align 4
  %6 = alloca i32, align 4
  %7 = alloca [8 x i8], align 1
  %8 = alloca i32, align 4
  store ptr %0, ptr %4, align 8, !tbaa !11
  store i32 %1, ptr %5, align 4, !tbaa !8
  store i32 %2, ptr %6, align 4, !tbaa !8
  call void @llvm.lifetime.start.p0(i64 8, ptr %7) #7
  %9 = load ptr, ptr %4, align 8, !tbaa !11
  %10 = icmp eq ptr %9, null
  br i1 %10, label %11, label %12

11:                                               ; preds = %3
  store i32 1, ptr %8, align 4
  br label %31

12:                                               ; preds = %3
  %13 = load ptr, ptr %4, align 8, !tbaa !11
  %14 = getelementptr inbounds nuw %struct.png_struct_def, ptr %13, i32 0, i32 147
  store i32 34, ptr %14, align 4, !tbaa !13
  %15 = getelementptr inbounds [8 x i8], ptr %7, i64 0, i64 0
  %16 = load i32, ptr %6, align 4, !tbaa !8
  call void @png_save_uint_32(ptr noundef %15, i32 noundef %16)
  %17 = getelementptr inbounds [8 x i8], ptr %7, i64 0, i64 0
  %18 = getelementptr inbounds i8, ptr %17, i64 4
  %19 = load i32, ptr %5, align 4, !tbaa !8
  call void @png_save_uint_32(ptr noundef %18, i32 noundef %19)
  %20 = load ptr, ptr %4, align 8, !tbaa !11
  %21 = getelementptr inbounds [8 x i8], ptr %7, i64 0, i64 0
  call void @png_write_data(ptr noundef %20, ptr noundef %21, i64 noundef 8)
  %22 = load i32, ptr %5, align 4, !tbaa !8
  %23 = load ptr, ptr %4, align 8, !tbaa !11
  %24 = getelementptr inbounds nuw %struct.png_struct_def, ptr %23, i32 0, i32 45
  store i32 %22, ptr %24, align 8, !tbaa !29
  %25 = load ptr, ptr %4, align 8, !tbaa !11
  call void @png_reset_crc(ptr noundef %25)
  %26 = load ptr, ptr %4, align 8, !tbaa !11
  %27 = getelementptr inbounds [8 x i8], ptr %7, i64 0, i64 0
  %28 = getelementptr inbounds i8, ptr %27, i64 4
  call void @png_calculate_crc(ptr noundef %26, ptr noundef %28, i64 noundef 4)
  %29 = load ptr, ptr %4, align 8, !tbaa !11
  %30 = getelementptr inbounds nuw %struct.png_struct_def, ptr %29, i32 0, i32 147
  store i32 66, ptr %30, align 4, !tbaa !13
  store i32 0, ptr %8, align 4
  br label %31

31:                                               ; preds = %12, %11
  call void @llvm.lifetime.end.p0(i64 8, ptr %7) #7
  %32 = load i32, ptr %8, align 4
  switch i32 %32, label %34 [
    i32 0, label %33
    i32 1, label %33
  ]

33:                                               ; preds = %31, %31
  ret void

34:                                               ; preds = %31
  unreachable
}

; Function Attrs: nounwind uwtable
define void @png_write_PLTE(ptr noalias noundef %0, ptr noundef %1, i32 noundef %2) #0 {
  %4 = alloca ptr, align 8
  %5 = alloca ptr, align 8
  %6 = alloca i32, align 4
  %7 = alloca i32, align 4
  %8 = alloca i32, align 4
  %9 = alloca ptr, align 8
  %10 = alloca [3 x i8], align 1
  %11 = alloca i32, align 4
  store ptr %0, ptr %4, align 8, !tbaa !11
  store ptr %1, ptr %5, align 8, !tbaa !54
  store i32 %2, ptr %6, align 4, !tbaa !8
  call void @llvm.lifetime.start.p0(i64 4, ptr %7) #7
  call void @llvm.lifetime.start.p0(i64 4, ptr %8) #7
  call void @llvm.lifetime.start.p0(i64 8, ptr %9) #7
  call void @llvm.lifetime.start.p0(i64 3, ptr %10) #7
  %12 = load ptr, ptr %4, align 8, !tbaa !11
  %13 = getelementptr inbounds nuw %struct.png_struct_def, ptr %12, i32 0, i32 62
  %14 = load i8, ptr %13, align 1, !tbaa !42
  %15 = zext i8 %14 to i32
  %16 = icmp eq i32 %15, 3
  br i1 %16, label %17, label %23

17:                                               ; preds = %3
  %18 = load ptr, ptr %4, align 8, !tbaa !11
  %19 = getelementptr inbounds nuw %struct.png_struct_def, ptr %18, i32 0, i32 63
  %20 = load i8, ptr %19, align 8, !tbaa !41
  %21 = zext i8 %20 to i32
  %22 = shl i32 1, %21
  br label %24

23:                                               ; preds = %3
  br label %24

24:                                               ; preds = %23, %17
  %25 = phi i32 [ %22, %17 ], [ 256, %23 ]
  store i32 %25, ptr %7, align 4, !tbaa !8
  %26 = load ptr, ptr %4, align 8, !tbaa !11
  %27 = getelementptr inbounds nuw %struct.png_struct_def, ptr %26, i32 0, i32 128
  %28 = load i32, ptr %27, align 8, !tbaa !40
  %29 = and i32 %28, 1
  %30 = icmp eq i32 %29, 0
  br i1 %30, label %31, label %34

31:                                               ; preds = %24
  %32 = load i32, ptr %6, align 4, !tbaa !8
  %33 = icmp eq i32 %32, 0
  br i1 %33, label %38, label %34

34:                                               ; preds = %31, %24
  %35 = load i32, ptr %6, align 4, !tbaa !8
  %36 = load i32, ptr %7, align 4, !tbaa !8
  %37 = icmp ugt i32 %35, %36
  br i1 %37, label %38, label %48

38:                                               ; preds = %34, %31
  %39 = load ptr, ptr %4, align 8, !tbaa !11
  %40 = getelementptr inbounds nuw %struct.png_struct_def, ptr %39, i32 0, i32 62
  %41 = load i8, ptr %40, align 1, !tbaa !42
  %42 = zext i8 %41 to i32
  %43 = icmp eq i32 %42, 3
  br i1 %43, label %44, label %46

44:                                               ; preds = %38
  %45 = load ptr, ptr %4, align 8, !tbaa !11
  call void @png_error(ptr noundef %45, ptr noundef @.str.9) #8
  unreachable

46:                                               ; preds = %38
  %47 = load ptr, ptr %4, align 8, !tbaa !11
  call void @png_warning(ptr noundef %47, ptr noundef @.str.9)
  store i32 1, ptr %11, align 4
  br label %96

48:                                               ; preds = %34
  %49 = load ptr, ptr %4, align 8, !tbaa !11
  %50 = getelementptr inbounds nuw %struct.png_struct_def, ptr %49, i32 0, i32 62
  %51 = load i8, ptr %50, align 1, !tbaa !42
  %52 = zext i8 %51 to i32
  %53 = and i32 %52, 2
  %54 = icmp eq i32 %53, 0
  br i1 %54, label %55, label %57

55:                                               ; preds = %48
  %56 = load ptr, ptr %4, align 8, !tbaa !11
  call void @png_warning(ptr noundef %56, ptr noundef @.str.10)
  store i32 1, ptr %11, align 4
  br label %96

57:                                               ; preds = %48
  %58 = load i32, ptr %6, align 4, !tbaa !8
  %59 = trunc i32 %58 to i16
  %60 = load ptr, ptr %4, align 8, !tbaa !11
  %61 = getelementptr inbounds nuw %struct.png_struct_def, ptr %60, i32 0, i32 54
  store i16 %59, ptr %61, align 8, !tbaa !55
  %62 = load ptr, ptr %4, align 8, !tbaa !11
  %63 = load i32, ptr %6, align 4, !tbaa !8
  %64 = mul i32 %63, 3
  call void @png_write_chunk_header(ptr noundef %62, i32 noundef 1347179589, i32 noundef %64)
  store i32 0, ptr %8, align 4, !tbaa !8
  %65 = load ptr, ptr %5, align 8, !tbaa !54
  store ptr %65, ptr %9, align 8, !tbaa !54
  br label %66

66:                                               ; preds = %85, %57
  %67 = load i32, ptr %8, align 4, !tbaa !8
  %68 = load i32, ptr %6, align 4, !tbaa !8
  %69 = icmp ult i32 %67, %68
  br i1 %69, label %70, label %90

70:                                               ; preds = %66
  %71 = load ptr, ptr %9, align 8, !tbaa !54
  %72 = getelementptr inbounds nuw %struct.png_color_struct, ptr %71, i32 0, i32 0
  %73 = load i8, ptr %72, align 1, !tbaa !56
  %74 = getelementptr inbounds [3 x i8], ptr %10, i64 0, i64 0
  store i8 %73, ptr %74, align 1, !tbaa !10
  %75 = load ptr, ptr %9, align 8, !tbaa !54
  %76 = getelementptr inbounds nuw %struct.png_color_struct, ptr %75, i32 0, i32 1
  %77 = load i8, ptr %76, align 1, !tbaa !58
  %78 = getelementptr inbounds [3 x i8], ptr %10, i64 0, i64 1
  store i8 %77, ptr %78, align 1, !tbaa !10
  %79 = load ptr, ptr %9, align 8, !tbaa !54
  %80 = getelementptr inbounds nuw %struct.png_color_struct, ptr %79, i32 0, i32 2
  %81 = load i8, ptr %80, align 1, !tbaa !59
  %82 = getelementptr inbounds [3 x i8], ptr %10, i64 0, i64 2
  store i8 %81, ptr %82, align 1, !tbaa !10
  %83 = load ptr, ptr %4, align 8, !tbaa !11
  %84 = getelementptr inbounds [3 x i8], ptr %10, i64 0, i64 0
  call void @png_write_chunk_data(ptr noundef %83, ptr noundef %84, i64 noundef 3)
  br label %85

85:                                               ; preds = %70
  %86 = load i32, ptr %8, align 4, !tbaa !8
  %87 = add i32 %86, 1
  store i32 %87, ptr %8, align 4, !tbaa !8
  %88 = load ptr, ptr %9, align 8, !tbaa !54
  %89 = getelementptr inbounds nuw %struct.png_color_struct, ptr %88, i32 1
  store ptr %89, ptr %9, align 8, !tbaa !54
  br label %66, !llvm.loop !60

90:                                               ; preds = %66
  %91 = load ptr, ptr %4, align 8, !tbaa !11
  call void @png_write_chunk_end(ptr noundef %91)
  %92 = load ptr, ptr %4, align 8, !tbaa !11
  %93 = getelementptr inbounds nuw %struct.png_struct_def, ptr %92, i32 0, i32 15
  %94 = load i32, ptr %93, align 4, !tbaa !28
  %95 = or i32 %94, 2
  store i32 %95, ptr %93, align 4, !tbaa !28
  store i32 0, ptr %11, align 4
  br label %96

96:                                               ; preds = %90, %55, %46
  call void @llvm.lifetime.end.p0(i64 3, ptr %10) #7
  call void @llvm.lifetime.end.p0(i64 8, ptr %9) #7
  call void @llvm.lifetime.end.p0(i64 4, ptr %8) #7
  call void @llvm.lifetime.end.p0(i64 4, ptr %7) #7
  %97 = load i32, ptr %11, align 4
  switch i32 %97, label %99 [
    i32 0, label %98
    i32 1, label %98
  ]

98:                                               ; preds = %96, %96
  ret void

99:                                               ; preds = %96
  unreachable
}