; Function Attrs: nounwind uwtable
define void @png_write_PLTE(ptr noalias noundef %0, ptr noundef readonly captures(none) %1, i32 noundef %2) local_unnamed_addr #1 {
  %4 = alloca [4 x i8], align 1
  %5 = alloca [8 x i8], align 1
  %6 = alloca [3 x i8], align 1
  call void @llvm.lifetime.start.p0(i64 3, ptr nonnull %6) #12
  %7 = getelementptr inbounds nuw i8, ptr %0, i64 623
  %8 = load i8, ptr %7, align 1, !tbaa !44
  %9 = icmp eq i8 %8, 3
  br i1 %9, label %10, label %.thread

10:                                               ; preds = %3
  %11 = getelementptr inbounds nuw i8, ptr %0, i64 624
  %12 = load i8, ptr %11, align 8, !tbaa !43
  %13 = zext nneg i8 %12 to i32
  %14 = shl nuw i32 1, %13
  %15 = getelementptr inbounds nuw i8, ptr %0, i64 1048
  %16 = load i32, ptr %15, align 8, !tbaa !42
  %17 = and i32 %16, 1
  %18 = or i32 %17, %2
  %or.cond = icmp eq i32 %18, 0
  %19 = icmp ugt i32 %2, %14
  %or.cond28 = select i1 %or.cond, i1 true, i1 %19
  br i1 %or.cond28, label %25, label %png_write_chunk_header.exit

.thread:                                          ; preds = %3
  %20 = getelementptr inbounds nuw i8, ptr %0, i64 1048
  %21 = load i32, ptr %20, align 8, !tbaa !42
  %22 = and i32 %21, 1
  %23 = or i32 %22, %2
  %or.cond29 = icmp eq i32 %23, 0
  %24 = icmp ugt i32 %2, 256
  %or.cond2830 = or i1 %24, %or.cond29
  br i1 %or.cond2830, label %.thread31, label %26

25:                                               ; preds = %10
  tail call void @png_error(ptr noundef nonnull %0, ptr noundef nonnull @.str.9) #13
  unreachable

.thread31:                                        ; preds = %.thread
  tail call void @png_warning(ptr noundef nonnull %0, ptr noundef nonnull @.str.9) #12
  br label %73

26:                                               ; preds = %.thread
  %27 = and i8 %8, 2
  %28 = icmp eq i8 %27, 0
  br i1 %28, label %29, label %png_write_chunk_header.exit

29:                                               ; preds = %26
  tail call void @png_warning(ptr noundef nonnull %0, ptr noundef nonnull @.str.10) #12
  br label %73

png_write_chunk_header.exit:                      ; preds = %10, %26
  %30 = trunc i32 %2 to i16
  %31 = getelementptr inbounds nuw i8, ptr %0, i64 608
  store i16 %30, ptr %31, align 8, !tbaa !56
  %32 = mul i32 %2, 3
  tail call void @llvm.experimental.noalias.scope.decl(metadata !57)
  call void @llvm.lifetime.start.p0(i64 8, ptr nonnull %5) #12, !noalias !57
  %33 = getelementptr inbounds nuw i8, ptr %0, i64 1196
  store i32 34, ptr %33, align 4, !tbaa !6, !alias.scope !57
  %34 = lshr i32 %32, 24
  %35 = trunc nuw i32 %34 to i8
  store i8 %35, ptr %5, align 1, !tbaa !3, !noalias !57
  %36 = lshr i32 %32, 16
  %37 = trunc i32 %36 to i8
  %38 = getelementptr inbounds nuw i8, ptr %5, i64 1
  store i8 %37, ptr %38, align 1, !tbaa !3, !noalias !57
  %39 = lshr i32 %32, 8
  %40 = trunc i32 %39 to i8
  %41 = getelementptr inbounds nuw i8, ptr %5, i64 2
  store i8 %40, ptr %41, align 1, !tbaa !3, !noalias !57
  %42 = trunc i32 %32 to i8
  %43 = getelementptr inbounds nuw i8, ptr %5, i64 3
  store i8 %42, ptr %43, align 1, !tbaa !3, !noalias !57
  %44 = getelementptr inbounds nuw i8, ptr %5, i64 4
  store i8 80, ptr %44, align 1, !tbaa !3, !noalias !57
  %45 = getelementptr inbounds nuw i8, ptr %5, i64 5
  store i8 76, ptr %45, align 1, !tbaa !3, !noalias !57
  %46 = getelementptr inbounds nuw i8, ptr %5, i64 6
  store i8 84, ptr %46, align 1, !tbaa !3, !noalias !57
  %47 = getelementptr inbounds nuw i8, ptr %5, i64 7
  store i8 69, ptr %47, align 1, !tbaa !3, !noalias !57
  call void @png_write_data(ptr noundef nonnull %0, ptr noundef nonnull %5, i64 noundef 8) #12
  %48 = getelementptr inbounds nuw i8, ptr %0, i64 544
  store i32 1347179589, ptr %48, align 8, !tbaa !28, !alias.scope !57
  call void @png_reset_crc(ptr noundef nonnull %0) #12
  call void @png_calculate_crc(ptr noundef nonnull %0, ptr noundef nonnull %44, i64 noundef 4) #12
  store i32 66, ptr %33, align 4, !tbaa !6, !alias.scope !57
  call void @llvm.lifetime.end.p0(i64 8, ptr nonnull %5) #12, !noalias !57
  %.not = icmp eq i32 %2, 0
  br i1 %.not, label %png_write_chunk_end.exit, label %png_write_chunk_data.exit.lr.ph

png_write_chunk_data.exit.lr.ph:                  ; preds = %png_write_chunk_header.exit
  %49 = getelementptr inbounds nuw i8, ptr %6, i64 1
  %50 = getelementptr inbounds nuw i8, ptr %6, i64 2
  br label %png_write_chunk_data.exit

png_write_chunk_data.exit:                        ; preds = %png_write_chunk_data.exit.lr.ph, %png_write_chunk_data.exit
  %.033 = phi ptr [ %1, %png_write_chunk_data.exit.lr.ph ], [ %57, %png_write_chunk_data.exit ]
  %.02632 = phi i32 [ 0, %png_write_chunk_data.exit.lr.ph ], [ %56, %png_write_chunk_data.exit ]
  %51 = load i8, ptr %.033, align 1, !tbaa !60
  store i8 %51, ptr %6, align 1, !tbaa !3
  %52 = getelementptr inbounds nuw i8, ptr %.033, i64 1
  %53 = load i8, ptr %52, align 1, !tbaa !62
  store i8 %53, ptr %49, align 1, !tbaa !3
  %54 = getelementptr inbounds nuw i8, ptr %.033, i64 2
  %55 = load i8, ptr %54, align 1, !tbaa !63
  store i8 %55, ptr %50, align 1, !tbaa !3
  call void @png_write_data(ptr noundef nonnull %0, ptr noundef nonnull %6, i64 noundef 3) #12
  call void @png_calculate_crc(ptr noundef nonnull %0, ptr noundef nonnull %6, i64 noundef 3) #12
  %56 = add nuw i32 %.02632, 1
  %57 = getelementptr inbounds nuw i8, ptr %.033, i64 3
  %exitcond.not = icmp eq i32 %56, %2
  br i1 %exitcond.not, label %png_write_chunk_end.exit, label %png_write_chunk_data.exit, !llvm.loop !64

png_write_chunk_end.exit:                         ; preds = %png_write_chunk_data.exit, %png_write_chunk_header.exit
  call void @llvm.experimental.noalias.scope.decl(metadata !65)
  call void @llvm.lifetime.start.p0(i64 4, ptr nonnull %4) #12, !noalias !65
  store i32 130, ptr %33, align 4, !tbaa !6, !alias.scope !65
  %58 = getelementptr inbounds nuw i8, ptr %0, i64 596
  %59 = load i32, ptr %58, align 4, !tbaa !29, !alias.scope !65
  %60 = lshr i32 %59, 24
  %61 = trunc nuw i32 %60 to i8
  store i8 %61, ptr %4, align 1, !tbaa !3, !noalias !65
  %62 = lshr i32 %59, 16
  %63 = trunc i32 %62 to i8
  %64 = getelementptr inbounds nuw i8, ptr %4, i64 1
  store i8 %63, ptr %64, align 1, !tbaa !3, !noalias !65
  %65 = lshr i32 %59, 8
  %66 = trunc i32 %65 to i8
  %67 = getelementptr inbounds nuw i8, ptr %4, i64 2
  store i8 %66, ptr %67, align 1, !tbaa !3, !noalias !65
  %68 = trunc i32 %59 to i8
  %69 = getelementptr inbounds nuw i8, ptr %4, i64 3
  store i8 %68, ptr %69, align 1, !tbaa !3, !noalias !65
  call void @png_write_data(ptr noundef nonnull %0, ptr noundef nonnull %4, i64 noundef 4) #12
  call void @llvm.lifetime.end.p0(i64 4, ptr nonnull %4) #12, !noalias !65
  %70 = getelementptr inbounds nuw i8, ptr %0, i64 300
  %71 = load i32, ptr %70, align 4, !tbaa !24
  %72 = or i32 %71, 2
  store i32 %72, ptr %70, align 4, !tbaa !24
  br label %73

73:                                               ; preds = %png_write_chunk_end.exit, %29, %.thread31
  call void @llvm.lifetime.end.p0(i64 3, ptr nonnull %6) #12
  ret void
}